target datalayout = "e-m:e-p270:32:32-p271:32:32-p272:64:64-i64:64-i128:128-f80:128-n8:16:32:64-S128"
target triple = "x86_64-pc-linux-gnu"

@.str.19 = private unnamed_addr constant [104 x i8] c"Warning: Watcom's WMake does not support parallel builds. Ignoring parallel build command line option.\0A\00", align 1

; Function Attrs: mustprogress uwtable
define dso_local void @_ZNK28cmGlobalWatcomWMakeGenerator23PrintBuildCommandAdviceERSoi(ptr noundef nonnull align 8 dereferenceable(2120) %0, ptr noundef nonnull align 8 dereferenceable(8) %1, i32 noundef %2) unnamed_addr #4 align 2 {
  %4 = alloca ptr, align 8
  %5 = alloca ptr, align 8
  %6 = alloca i32, align 4
  store ptr %0, ptr %4, align 8
  store ptr %1, ptr %5, align 8
  store i32 %2, ptr %6, align 4
  %7 = load ptr, ptr %4, align 8
  %8 = load i32, ptr %6, align 4
  %9 = icmp ne i32 %8, -1
  br i1 %9, label %10, label %13

10:                                               ; preds = %3
  %11 = load ptr, ptr %5, align 8
  %12 = call noundef nonnull align 8 dereferenceable(8) ptr @_ZStlsISt11char_traitsIcEERSt13basic_ostreamIcT_ES5_PKc(ptr noundef nonnull align 8 dereferenceable(8) %11, ptr noundef @.str.19)
  br label %13

13:                                               ; preds = %10, %3
  %14 = load ptr, ptr %5, align 8
  call void @_ZNK17cmGlobalGenerator23PrintBuildCommandAdviceERSoi(ptr noundef nonnull align 8 dereferenceable(1778) %7, ptr noundef nonnull align 8 dereferenceable(8) %14, i32 noundef -1)
  ret void
}