; Function Attrs: mustprogress uwtable
define dso_local void @_ZNK28cmGlobalWatcomWMakeGenerator23PrintBuildCommandAdviceERSoi(ptr noundef nonnull align 8 dereferenceable(2120) %0, ptr noundef nonnull align 8 dereferenceable(8) %1, i32 noundef %2) unnamed_addr #3 align 2 {
  %.not = icmp eq i32 %2, -1
  br i1 %.not, label %6, label %4

4:                                                ; preds = %3
  %5 = tail call noundef nonnull align 8 dereferenceable(8) ptr @_ZStlsISt11char_traitsIcEERSt13basic_ostreamIcT_ES5_PKc(ptr noundef nonnull align 8 dereferenceable(8) %1, ptr noundef nonnull @.str.19)
  br label %6

6:                                                ; preds = %4, %3
  tail call void @_ZNK17cmGlobalGenerator23PrintBuildCommandAdviceERSoi(ptr noundef nonnull align 8 dereferenceable(1778) %0, ptr noundef nonnull align 8 dereferenceable(8) %1, i32 noundef -1)
  ret void
}